target datalayout = "e-m:e-p270:32:32-p271:32:32-p272:64:64-i64:64-i128:128-f80:128-n8:16:32:64-S128"
target triple = "x86_64-pc-linux-gnu"

%struct.buftag = type { i32, i32, i32, i32, i32 }
%struct.LWLock = type { i16, %struct.pg_atomic_uint32, %struct.proclist_head }
%struct.pg_atomic_uint32 = type { i32 }
%struct.proclist_head = type { i32, i32 }
%struct.BufferDesc = type { %struct.buftag, i32, %struct.pg_atomic_uint32, i32, i32, %struct.LWLock }
%union.BufferDescPadded = type { %struct.BufferDesc, [12 x i8] }

@.str.3 = private unnamed_addr constant [9 x i8] c"bufmgr.c\00", align 1
@.str.6 = private unnamed_addr constant [18 x i8] c"bad buffer ID: %d\00", align 1
@BufferDescriptors = external global ptr, align 8
@__func__.ResOwnerReleaseBufferPin = private unnamed_addr constant [25 x i8] c"ResOwnerReleaseBufferPin\00", align 1

; Function Attrs: inlinehint nounwind uwtable
define internal ptr @GetBufferDescriptor(i32 noundef %0) #3 {
  %2 = alloca i32, align 4
  store i32 %0, ptr %2, align 4
  %3 = load ptr, ptr @BufferDescriptors, align 8
  %4 = load i32, ptr %2, align 4
  %5 = zext i32 %4 to i64
  %6 = getelementptr inbounds nuw %union.BufferDescPadded, ptr %3, i64 %5
  ret ptr %6
}

; Function Attrs: inlinehint nounwind uwtable
define internal zeroext i1 @BufferIsValid(i32 noundef %0) #3 {
  %2 = alloca i32, align 4
  store i32 %0, ptr %2, align 4
  %3 = load i32, ptr %2, align 4
  %4 = icmp ne i32 %3, 0
  ret i1 %4
}

; Function Attrs: inlinehint nounwind uwtable
define internal i32 @DatumGetInt32(i64 noundef %0) #3 {
  %2 = alloca i64, align 8
  store i64 %0, ptr %2, align 8
  %3 = load i64, ptr %2, align 8
  %4 = trunc i64 %3 to i32
  ret i32 %4
}

; Function Attrs: nounwind uwtable
define internal void @ResOwnerReleaseBufferPin(i64 noundef %0) #0 {
  %2 = alloca i64, align 8
  %3 = alloca i32, align 4
  store i64 %0, ptr %2, align 8
  call void @llvm.lifetime.start.p0(i64 4, ptr %3) #10
  %4 = load i64, ptr %2, align 8
  %5 = call i32 @DatumGetInt32(i64 noundef %4)
  store i32 %5, ptr %3, align 4
  %6 = load i32, ptr %3, align 4
  %7 = call zeroext i1 @BufferIsValid(i32 noundef %6)
  br i1 %7, label %20, label %8

8:                                                ; preds = %1
  br label %9

9:                                                ; preds = %8
  br i1 true, label %10, label %12

10:                                               ; preds = %9
  %11 = call zeroext i1 @errstart_cold(i32 noundef 21, ptr noundef null) #11
  br i1 %11, label %14, label %17

12:                                               ; preds = %9
  %13 = call zeroext i1 @errstart(i32 noundef 21, ptr noundef null)
  br i1 %13, label %14, label %17

14:                                               ; preds = %12, %10
  %15 = load i32, ptr %3, align 4
  %16 = call i32 (ptr, ...) @errmsg_internal(ptr noundef @.str.6, i32 noundef %15)
  call void @errfinish(ptr noundef @.str.3, i32 noundef 6009, ptr noundef @__func__.ResOwnerReleaseBufferPin)
  br label %17

17:                                               ; preds = %14, %12, %10
  unreachable

18:                                               ; No predecessors!
  br label %19

19:                                               ; preds = %18
  br label %20

20:                                               ; preds = %19, %1
  %21 = load i32, ptr %3, align 4
  %22 = icmp slt i32 %21, 0
  br i1 %22, label %23, label %25

23:                                               ; preds = %20
  %24 = load i32, ptr %3, align 4
  call void @UnpinLocalBufferNoOwner(i32 noundef %24)
  br label %29

25:                                               ; preds = %20
  %26 = load i32, ptr %3, align 4
  %27 = sub i32 %26, 1
  %28 = call ptr @GetBufferDescriptor(i32 noundef %27)
  call void @UnpinBufferNoOwner(ptr noundef %28)
  br label %29

29:                                               ; preds = %25, %23
  call void @llvm.lifetime.end.p0(i64 4, ptr %3) #10
  ret void
}