; Function Attrs: nounwind uwtable
define internal void @ResOwnerReleaseBufferPin(i64 noundef %0) #0 {
  %2 = trunc i64 %0 to i32
  %.not = icmp eq i32 %2, 0
  br i1 %.not, label %3, label %6

3:                                                ; preds = %1
  %4 = tail call zeroext i1 @errstart_cold(i32 noundef 21, ptr noundef null) #17
  tail call void @llvm.assume(i1 %4)
  %5 = tail call i32 (ptr, ...) @errmsg_internal(ptr noundef nonnull @.str.6, i32 noundef 0) #16
  tail call void @errfinish(ptr noundef nonnull @.str.3, i32 noundef 6009, ptr noundef nonnull @__func__.ResOwnerReleaseBufferPin) #16
  unreachable

6:                                                ; preds = %1
  %7 = icmp slt i32 %2, 0
  br i1 %7, label %8, label %9

8:                                                ; preds = %6
  tail call void @UnpinLocalBufferNoOwner(i32 noundef %2) #16
  br label %14

9:                                                ; preds = %6
  %10 = add i64 %0, 4294967295
  %11 = load ptr, ptr @BufferDescriptors, align 8
  %12 = and i64 %10, 4294967295
  %13 = getelementptr inbounds nuw %union.BufferDescPadded, ptr %11, i64 %12
  tail call fastcc void @UnpinBufferNoOwner(ptr noundef %13)
  br label %14

14:                                               ; preds = %9, %8
  ret void
}